target datalayout = "e-m:e-p270:32:32-p271:32:32-p272:64:64-i64:64-i128:128-f80:128-n8:16:32:64-S128"
target triple = "x86_64-pc-linux-gnu"

%"class.glslang::TQualifier" = type <{ ptr, i64, i8, [3 x i8], i32, i32, i64, i64, i8, i8, i8, i8, i8, [3 x i8], i32, i8, i8, i8, i8, i32, ptr, i8, i8, [6 x i8] }>

; Function Attrs: mustprogress nounwind uwtable
define internal noundef zeroext i1 @_ZN12_GLOBAL__N_122TGlslangToSpvTraverser13isTrivialLeafEPKN7glslang12TIntermTypedE(ptr noundef nonnull align 8 dereferenceable(3528) %0, ptr noundef %1) #4 align 2 {
  %3 = alloca i1, align 1
  %4 = alloca ptr, align 8
  %5 = alloca ptr, align 8
  store ptr %0, ptr %4, align 8
  store ptr %1, ptr %5, align 8
  %6 = load ptr, ptr %5, align 8
  %7 = icmp eq ptr %6, null
  br i1 %7, label %8, label %9

8:                                                ; preds = %2
  store i1 false, ptr %3, align 1
  br label %41

9:                                                ; preds = %2
  %10 = load ptr, ptr %5, align 8
  %11 = load ptr, ptr %10, align 8
  %12 = getelementptr inbounds ptr, ptr %11, i64 17
  %13 = load ptr, ptr %12, align 8
  %14 = call noundef ptr %13(ptr noundef nonnull align 8 dereferenceable(32) %10)
  %15 = icmp ne ptr %14, null
  br i1 %15, label %16, label %17

16:                                               ; preds = %9
  store i1 true, ptr %3, align 1
  br label %41

17:                                               ; preds = %9
  %18 = load ptr, ptr %5, align 8
  %19 = load ptr, ptr %18, align 8
  %20 = getelementptr inbounds ptr, ptr %19, i64 24
  %21 = load ptr, ptr %20, align 8
  %22 = call noundef ptr %21(ptr noundef nonnull align 8 dereferenceable(32) %18)
  %23 = icmp eq ptr %22, null
  br i1 %23, label %24, label %25

24:                                               ; preds = %17
  store i1 false, ptr %3, align 1
  br label %41

25:                                               ; preds = %17
  %26 = load ptr, ptr %5, align 8
  %27 = load ptr, ptr %26, align 8
  %28 = getelementptr inbounds ptr, ptr %27, i64 30
  %29 = load ptr, ptr %28, align 8
  %30 = call noundef nonnull align 8 dereferenceable(152) ptr %29(ptr noundef nonnull align 8 dereferenceable(184) %26)
  %31 = load ptr, ptr %30, align 8
  %32 = getelementptr inbounds ptr, ptr %31, i64 11
  %33 = load ptr, ptr %32, align 8
  %34 = call noundef nonnull align 8 dereferenceable(80) ptr %33(ptr noundef nonnull align 8 dereferenceable(152) %30)
  %35 = getelementptr inbounds %"class.glslang::TQualifier", ptr %34, i32 0, i32 1
  %36 = load i64, ptr %35, align 8
  %37 = and i64 %36, 127
  %38 = trunc i64 %37 to i32
  switch i32 %38, label %40 [
    i32 0, label %39
    i32 1, label %39
    i32 16, label %39
    i32 18, label %39
    i32 2, label %39
    i32 19, label %39
    i32 5, label %39
  ]

39:                                               ; preds = %25, %25, %25, %25, %25, %25, %25
  store i1 true, ptr %3, align 1
  br label %41

40:                                               ; preds = %25
  store i1 false, ptr %3, align 1
  br label %41

41:                                               ; preds = %40, %39, %24, %16, %8
  %42 = load i1, ptr %3, align 1
  ret i1 %42
}