; Function Attrs: mustprogress nounwind uwtable
define internal fastcc noundef zeroext i1 @_ZN12_GLOBAL__N_122TGlslangToSpvTraverser13isTrivialLeafEPKN7glslang12TIntermTypedE(ptr noundef %0) unnamed_addr #3 align 2 {
  %2 = icmp eq ptr %0, null
  br i1 %2, label %28, label %3

3:                                                ; preds = %1
  %4 = load ptr, ptr %0, align 8
  %5 = getelementptr inbounds nuw i8, ptr %4, i64 136
  %6 = load ptr, ptr %5, align 8
  %7 = tail call noundef ptr %6(ptr noundef nonnull align 8 dereferenceable(32) %0) #20
  %.not = icmp eq ptr %7, null
  br i1 %.not, label %8, label %28

8:                                                ; preds = %3
  %9 = load ptr, ptr %0, align 8
  %10 = getelementptr inbounds nuw i8, ptr %9, i64 192
  %11 = load ptr, ptr %10, align 8
  %12 = tail call noundef ptr %11(ptr noundef nonnull align 8 dereferenceable(32) %0) #20
  %13 = icmp eq ptr %12, null
  br i1 %13, label %28, label %14

14:                                               ; preds = %8
  %15 = load ptr, ptr %0, align 8
  %16 = getelementptr inbounds nuw i8, ptr %15, i64 240
  %17 = load ptr, ptr %16, align 8
  %18 = tail call noundef nonnull align 8 dereferenceable(152) ptr %17(ptr noundef nonnull align 8 dereferenceable(184) %0) #20
  %19 = load ptr, ptr %18, align 8
  %20 = getelementptr inbounds nuw i8, ptr %19, i64 88
  %21 = load ptr, ptr %20, align 8
  %22 = tail call noundef nonnull align 8 dereferenceable(80) ptr %21(ptr noundef nonnull align 8 dereferenceable(152) %18) #20
  %23 = getelementptr inbounds nuw i8, ptr %22, i64 8
  %24 = load i64, ptr %23, align 8
  %25 = trunc i64 %24 to i32
  %26 = and i32 %25, 127
  %27 = icmp samesign ult i32 %26, 20
  br i1 %27, label %switch.lookup, label %28

switch.lookup:                                    ; preds = %14
  %switch.cast = trunc nuw nsw i32 %26 to i20
  %switch.downshift = lshr i20 -196569, %switch.cast
  %switch.masked = trunc i20 %switch.downshift to i1
  br label %28

28:                                               ; preds = %14, %switch.lookup, %8, %3, %1
  %.0 = phi i1 [ false, %1 ], [ true, %3 ], [ false, %8 ], [ %switch.masked, %switch.lookup ], [ false, %14 ]
  ret i1 %.0
}